; Function Attrs: mustprogress noreturn uwtable
define noundef i64 @_Z16fast_rv32e_ecallP11processor_t6insn_tm(ptr nocapture noundef readonly %0, i64 %1, i64 noundef %2) local_unnamed_addr #3 personality ptr @__gxx_personality_v0 {
  %4 = getelementptr inbounds i8, ptr %0, i64 944
  %5 = load i64, ptr %4, align 8
  switch i64 %5, label %20 [
    i64 0, label %6
    i64 1, label %9
    i64 3, label %17
  ]

6:                                                ; preds = %3
  %7 = tail call ptr @__cxa_allocate_exception(i64 16) #13
  %8 = getelementptr inbounds i8, ptr %7, i64 8
  store i64 8, ptr %8, align 8
  store ptr getelementptr inbounds ({ [12 x ptr] }, ptr @_ZTV15trap_user_ecall, i64 0, i32 0, i64 2), ptr %7, align 8
  tail call void @__cxa_throw(ptr nonnull %7, ptr nonnull @_ZTI15trap_user_ecall, ptr nonnull @_ZN15trap_user_ecallD2Ev) #14
  unreachable

9:                                                ; preds = %3
  %10 = getelementptr inbounds i8, ptr %0, i64 962
  %11 = load i8, ptr %10, align 2
  %12 = and i8 %11, 1
  %.not = icmp eq i8 %12, 0
  %13 = tail call ptr @__cxa_allocate_exception(i64 16) #13
  %14 = getelementptr inbounds i8, ptr %13, i64 8
  br i1 %.not, label %16, label %15

15:                                               ; preds = %9
  store i64 10, ptr %14, align 8
  store ptr getelementptr inbounds ({ [12 x ptr] }, ptr @_ZTV29trap_virtual_supervisor_ecall, i64 0, i32 0, i64 2), ptr %13, align 8
  tail call void @__cxa_throw(ptr nonnull %13, ptr nonnull @_ZTI29trap_virtual_supervisor_ecall, ptr nonnull @_ZN29trap_virtual_supervisor_ecallD2Ev) #14
  unreachable

16:                                               ; preds = %9
  store i64 9, ptr %14, align 8
  store ptr getelementptr inbounds ({ [12 x ptr] }, ptr @_ZTV21trap_supervisor_ecall, i64 0, i32 0, i64 2), ptr %13, align 8
  tail call void @__cxa_throw(ptr nonnull %13, ptr nonnull @_ZTI21trap_supervisor_ecall, ptr nonnull @_ZN21trap_supervisor_ecallD2Ev) #14
  unreachable

17:                                               ; preds = %3
  %18 = tail call ptr @__cxa_allocate_exception(i64 16) #13
  %19 = getelementptr inbounds i8, ptr %18, i64 8
  store i64 11, ptr %19, align 8
  store ptr getelementptr inbounds ({ [12 x ptr] }, ptr @_ZTV18trap_machine_ecall, i64 0, i32 0, i64 2), ptr %18, align 8
  tail call void @__cxa_throw(ptr nonnull %18, ptr nonnull @_ZTI18trap_machine_ecall, ptr nonnull @_ZN18trap_machine_ecallD2Ev) #14
  unreachable

20:                                               ; preds = %3
  tail call void @abort() #15
  unreachable
}